c__builtin__
set
p1
((lp2
Vhttps://baike.baidu.com/item/%E5%85%8B%E9%87%8C%E6%96%AF%E6%89%98%E5%BC%97%C2%B7%E6%99%AE%E5%8D%A2%E9%BB%98
p3
aVhttps://baike.baidu.com/item/%E9%B2%81%E4%BC%AF%E7%89%B9%C2%B7%E8%89%BE%E5%BC%97%E9%9B%B7%E7%89%B9
p4
aVhttps://baike.baidu.com/item/%E5%BC%A0%E6%AD%86%E6%80%A1
p5
aVhttps://baike.baidu.com/item/%E5%85%AC%E4%BC%97%E4%B9%8B%E6%95%8C/477924
p6
aVhttps://baike.baidu.com/item/%E6%A2%85%E7%90%B3%E8%BE%BE%C2%B7%E9%87%91%E7%BA%B3%E6%9B%BC
p7
aVhttps://baike.baidu.com/item/Chris
p8
aVhttps://baike.baidu.com/item/%E5%85%8B%E9%87%8C%E6%96%AF%E6%89%98%E5%BC%97%C2%B7%E6%9D%8E
p9
aVhttps://baike.baidu.com/item/%E6%9C%BA%E6%A2%B0%E5%B8%88
p10
aVhttps://baike.baidu.com/item/%E5%A6%AE%E5%8F%AF%C2%B7%E5%9F%BA%E5%BE%B7%E6%9B%BC
p11
aVhttps://baike.baidu.com/item/%E5%9C%A3%E6%88%98%E8%B1%AA%E6%83%85/9022679
p12
aVhttps://baike.baidu.com/item/%E8%89%BE%E7%B1%B3%C2%B7%E4%BA%9A%E5%BD%93%E6%96%AF
p13
aVhttps://baike.baidu.com/item/%E5%B8%83%E6%8B%89%E5%BE%B7%C2%B7%E5%AE%89%E5%BE%B7%E6%A3%AE
p14
aVhttps://baike.baidu.com/item/%E7%BD%97%E4%BC%AF%E7%89%B9%C2%B7%E8%B7%AF%E6%98%93%E6%96%AF%C2%B7%E5%8F%B2%E8%92%82%E6%96%87%E6%A3%AE
p15
aVhttps://baike.baidu.com/item/%E5%B8%83%E8%8E%B1%E6%81%A9%C2%B7%E8%80%83%E5%85%8B%E6%96%AF
p16
aVhttps://baike.baidu.com/item/%E8%A3%B4%E6%B7%B3%E5%8D%8E
p17
aVhttps://baike.baidu.com/item/%E7%BA%A6%E7%BF%B0%C2%B7%E9%BA%A6%E7%99%BB
p18
aVhttps://baike.baidu.com/item/%E6%9F%A5%E5%B0%94%E7%99%BB%C2%B7%E6%B5%B7%E6%96%AF%E9%A1%BF
p19
aVhttps://baike.baidu.com/item/%E5%87%AF%E7%89%B9%C2%B7%E5%B8%83%E5%85%B0%E5%88%87%E7%89%B9
p20
aVhttps://baike.baidu.com/item/%E5%87%A1%E5%A6%AE%E8%8E%8E%C2%B7%E5%A8%81%E5%BB%89%E6%96%AF
p21
aVhttps://baike.baidu.com/item/%E6%9D%B0%E7%91%9E%E7%B1%B3%C2%B7%E6%89%98%E9%A9%AC%E6%96%AF
p22
aVhttps://baike.baidu.com/item/%E6%96%AF%E8%92%82%E8%8A%AC%C2%B7%E6%96%AF%E7%9A%AE%E5%B0%94%E4%BC%AF%E6%A0%BC
p23
aVhttps://baike.baidu.com/item/%E5%A4%9A%E7%B1%B3%E5%B0%BC%E5%85%8B%C2%B7%E7%8F%80%E5%A1%9E%E5%B0%94
p24
aVhttps://baike.baidu.com/item/%E8%BF%88%E5%85%8B%E5%B0%94%C2%B7%E6%9B%BC
p25
aVhttps://baike.baidu.com/item/%E7%BA%A6%E7%BF%B0%C2%B7%E5%BA%B7%E7%BA%B3
p26
aVhttps://baike.baidu.com/item/%E6%95%8C%E5%AF%B9%E5%88%86%E5%AD%90/19865541
p27
aVhttps://baike.baidu.com/item/%E5%87%AF%E8%92%82%C2%B7%E9%9C%8D%E5%B0%94%E5%A7%86%E6%96%AF
p28
aVhttps://baike.baidu.com/item/%E4%B9%94%E7%BA%B3%E6%A3%AE%C2%B7%E8%8E%B1%E6%96%AF%C2%B7%E6%A2%85%E8%80%B6%E6%96%AF
p29
aVhttps://baike.baidu.com/item/%E6%9C%AC%C2%B7%E5%8D%AB%E8%82%96
p30
aVhttps://baike.baidu.com/item/%E6%9C%AC%C2%B7%E9%97%A8%E5%BE%B7%E5%B0%94%E6%A3%AE
p31
aVhttps://baike.baidu.com/item/%E8%89%BE%E4%BC%A6%C2%B7%E8%89%BE%E5%85%8B%E5%93%88%E7%89%B9
p32
aVhttps://baike.baidu.com/item/%E5%9F%83%E5%A1%94%E5%A8%9C%C2%B7%E6%A1%91%E5%88%87%E6%96%AF%C2%B7%E5%90%89%E6%B0%B8
p33
aVhttps://baike.baidu.com/item/%E5%A4%8F%E6%B4%9B%E7%89%B9%E7%9A%84%E7%BD%91
p34
aVhttps://baike.baidu.com/item/%E8%BF%AA%E6%96%AF%E5%B0%BC
p35
aVhttps://baike.baidu.com/item/%E7%8E%9B%E5%90%89%C2%B7%E5%90%89%E4%BC%A6%E5%93%88%E5%B0%94
p36
aVhttps://baike.baidu.com/item/Jim%20Hawkins
p37
aVhttps://baike.baidu.com/item/%E5%A4%A7%E7%A9%BA%E5%A4%B4/16828574
p38
aVhttps://baike.baidu.com/item/%E8%9D%99%E8%9D%A0%E4%BE%A0%E9%BB%91%E6%9A%97%E9%AA%91%E5%A3%AB%E4%B8%89%E9%83%A8%E6%9B%B2/1938006
p39
aVhttps://baike.baidu.com/item/%E5%8D%A1%E8%A5%BF%C2%B7%E9%98%BF%E5%BC%97%E8%8E%B1%E5%85%8B
p40
aVhttps://baike.baidu.com/item/%E6%9D%B0%E5%BC%97%E9%87%8C%C2%B7%E6%80%80%E7%89%B9
p41
aVhttps://baike.baidu.com/item/%E6%A2%85%E4%B8%BD%E8%8E%8E%C2%B7%E9%87%8C%E5%A5%A5
p42
aVhttps://baike.baidu.com/item/%E6%8A%A5%E7%AB%A5%E4%BC%A0%E5%A5%87/5539115
p43
aVhttps://baike.baidu.com/item/%E5%BC%A0%E8%89%BA%E8%B0%8B
p44
aVhttps://baike.baidu.com/item/%E6%B7%91%E5%A5%B3%E6%9C%AC%E8%89%B2
p45
aVhttps://baike.baidu.com/item/%E5%8F%B2%E8%92%82%E5%A4%AB%C2%B7%E8%8C%A8%E6%81%A9
p46
atRp47
.